	.file	"magoc.c"
	.text
	.globl	swap
	.type	swap, @function
swap:
.LFB0:
	.cfi_startproc
	pushq	%rbp
	.cfi_def_cfa_offset 16
	.cfi_offset 6, -16
	movq	%rsp, %rbp
	.cfi_def_cfa_register 6
	movq	%rdi, -24(%rbp)
	movq	%rsi, -32(%rbp)
	movq	-24(%rbp), %rax
	movl	(%rax), %eax
	movl	%eax, -4(%rbp)
	movq	-32(%rbp), %rax
	movl	(%rax), %edx
	movq	-24(%rbp), %rax
	movl	%edx, (%rax)
	movq	-32(%rbp), %rax
	movl	-4(%rbp), %edx
	movl	%edx, (%rax)
	nop
	popq	%rbp
	.cfi_def_cfa 7, 8
	ret
	.cfi_endproc
.LFE0:
	.size	swap, .-swap
	.globl	shakersort
	.type	shakersort, @function
shakersort:
.LFB1:
	.cfi_startproc
	pushq	%rbp
	.cfi_def_cfa_offset 16
	.cfi_offset 6, -16
	movq	%rsp, %rbp
	.cfi_def_cfa_register 6
	subq	$32, %rsp
	movq	%rdi, -24(%rbp)
	movl	%esi, -28(%rbp)
	movl	$1, -8(%rbp)
	jmp	.L3
.L10:
	movl	-8(%rbp), %eax
	subl	$1, %eax
	movl	%eax, -4(%rbp)
	jmp	.L4
.L6:
	movl	-4(%rbp), %eax
	cltq
	leaq	0(,%rax,4), %rdx
	movq	-24(%rbp), %rax
	addq	%rdx, %rax
	movl	(%rax), %edx
	movl	-4(%rbp), %eax
	cltq
	addq	$1, %rax
	leaq	0(,%rax,4), %rcx
	movq	-24(%rbp), %rax
	addq	%rcx, %rax
	movl	(%rax), %eax
	cmpl	%eax, %edx
	jle	.L5
	movl	-4(%rbp), %eax
	cltq
	addq	$1, %rax
	leaq	0(,%rax,4), %rdx
	movq	-24(%rbp), %rax
	addq	%rax, %rdx
	movl	-4(%rbp), %eax
	cltq
	leaq	0(,%rax,4), %rcx
	movq	-24(%rbp), %rax
	addq	%rcx, %rax
	movq	%rdx, %rsi
	movq	%rax, %rdi
	call	swap
.L5:
	addl	$1, -4(%rbp)
.L4:
	movl	-28(%rbp), %eax
	subl	-8(%rbp), %eax
	cmpl	%eax, -4(%rbp)
	jl	.L6
	movl	-28(%rbp), %eax
	subl	-8(%rbp), %eax
	subl	$1, %eax
	movl	%eax, -4(%rbp)
	jmp	.L7
.L9:
	movl	-4(%rbp), %eax
	cltq
	leaq	0(,%rax,4), %rdx
	movq	-24(%rbp), %rax
	addq	%rdx, %rax
	movl	(%rax), %edx
	movl	-4(%rbp), %eax
	cltq
	salq	$2, %rax
	leaq	-4(%rax), %rcx
	movq	-24(%rbp), %rax
	addq	%rcx, %rax
	movl	(%rax), %eax
	cmpl	%eax, %edx
	jge	.L8
	movl	-4(%rbp), %eax
	cltq
	salq	$2, %rax
	leaq	-4(%rax), %rdx
	movq	-24(%rbp), %rax
	addq	%rax, %rdx
	movl	-4(%rbp), %eax
	cltq
	leaq	0(,%rax,4), %rcx
	movq	-24(%rbp), %rax
	addq	%rcx, %rax
	movq	%rdx, %rsi
	movq	%rax, %rdi
	call	swap
.L8:
	subl	$1, -4(%rbp)
.L7:
	movl	-4(%rbp), %eax
	cmpl	-8(%rbp), %eax
	jge	.L9
	addl	$1, -8(%rbp)
.L3:
	movl	-28(%rbp), %eax
	movl	%eax, %edx
	shrl	$31, %edx
	addl	%edx, %eax
	sarl	%eax
	cmpl	%eax, -8(%rbp)
	jle	.L10
	nop
	leave
	.cfi_def_cfa 7, 8
	ret
	.cfi_endproc
.LFE1:
	.size	shakersort, .-shakersort
	.section	.rodata
.LC0:
	.string	"%d "
.LC2:
	.string	"\ntime: %f"
	.text
	.globl	main
	.type	main, @function
main:
.LFB2:
	.cfi_startproc
	pushq	%rbp
	.cfi_def_cfa_offset 16
	.cfi_offset 6, -16
	movq	%rsp, %rbp
	.cfi_def_cfa_register 6
	subq	$96, %rsp
	movq	%fs:40, %rax
	movq	%rax, -8(%rbp)
	xorl	%eax, %eax
	call	clock@PLT
	movq	%rax, -72(%rbp)
	movl	$43, -48(%rbp)
	movl	$432, -44(%rbp)
	movl	$36, -40(%rbp)
	movl	$5, -36(%rbp)
	movl	$6, -32(%rbp)
	movl	$57, -28(%rbp)
	movl	$94, -24(%rbp)
	movl	$63, -20(%rbp)
	movl	$3, -16(%rbp)
	movl	$44, -12(%rbp)
	leaq	-48(%rbp), %rax
	movl	$10, %esi
	movq	%rax, %rdi
	call	shakersort
	movl	$0, -76(%rbp)
	jmp	.L12
.L13:
	movl	-76(%rbp), %eax
	cltq
	movl	-48(%rbp,%rax,4), %eax
	movl	%eax, %esi
	leaq	.LC0(%rip), %rdi
	movl	$0, %eax
	call	printf@PLT
	addl	$1, -76(%rbp)
.L12:
	cmpl	$9, -76(%rbp)
	jle	.L13
	call	clock@PLT
	movq	%rax, -64(%rbp)
	movq	-64(%rbp), %rax
	subq	-72(%rbp), %rax
	cvtsi2sdq	%rax, %xmm0
	movsd	.LC1(%rip), %xmm1
	divsd	%xmm1, %xmm0
	movsd	%xmm0, -56(%rbp)
	movq	-56(%rbp), %rax
	movq	%rax, -88(%rbp)
	movsd	-88(%rbp), %xmm0
	leaq	.LC2(%rip), %rdi
	movl	$1, %eax
	call	printf@PLT
	movl	$0, %eax
	movq	-8(%rbp), %rdx
	xorq	%fs:40, %rdx
	je	.L15
	call	__stack_chk_fail@PLT
.L15:
	leave
	.cfi_def_cfa 7, 8
	ret
	.cfi_endproc
.LFE2:
	.size	main, .-main
	.section	.rodata
	.align 8
.LC1:
	.long	0
	.long	1093567616
	.ident	"GCC: (Ubuntu 7.5.0-3ubuntu1~18.04) 7.5.0"
	.section	.note.GNU-stack,"",@progbits
