	.arch armv7-a
	.eabi_attribute 28, 1
	.eabi_attribute 20, 1
	.eabi_attribute 21, 1
	.eabi_attribute 23, 3
	.eabi_attribute 24, 1
	.eabi_attribute 25, 1
	.eabi_attribute 26, 2
	.eabi_attribute 30, 6
	.eabi_attribute 34, 1
	.eabi_attribute 18, 4
	.file	"magoc.c"
	.text
	.global	n
	.data
	.align	2
	.type	n, %object
	.size	n, 4
n:
	.word	10
	.text
	.align	1
	.global	tong
	.syntax unified
	.thumb
	.thumb_func
	.fpu vfpv3-d16
	.type	tong, %function
tong:
	@ args = 0, pretend = 0, frame = 16
	@ frame_needed = 1, uses_anonymous_args = 0
	@ link register save eliminated.
	push	{r7}
	sub	sp, sp, #20
	add	r7, sp, #0
	str	r0, [r7, #4]
	movs	r3, #0
	str	r3, [r7, #8]
	movs	r3, #1
	str	r3, [r7, #12]
	b	.L2
.L3:
	ldr	r2, [r7, #8]
	ldr	r3, [r7, #12]
	add	r3, r3, r2
	str	r3, [r7, #8]
	ldr	r3, [r7, #12]
	adds	r3, r3, #1
	str	r3, [r7, #12]
.L2:
	ldr	r2, [r7, #12]
	ldr	r3, [r7, #4]
	cmp	r2, r3
	ble	.L3
	ldr	r3, [r7, #8]
	mov	r0, r3
	adds	r7, r7, #20
	mov	sp, r7
	@ sp needed
	ldr	r7, [sp], #4
	bx	lr
	.size	tong, .-tong
	.align	1
	.global	tongPhanSo
	.syntax unified
	.thumb
	.thumb_func
	.fpu vfpv3-d16
	.type	tongPhanSo, %function
tongPhanSo:
	@ args = 0, pretend = 0, frame = 24
	@ frame_needed = 1, uses_anonymous_args = 0
	@ link register save eliminated.
	push	{r4, r7}
	sub	sp, sp, #24
	add	r7, sp, #0
	str	r0, [r7, #4]
	mov	r3, #0
	mov	r4, #0
	strd	r3, [r7, #16]
	movs	r3, #1
	str	r3, [r7, #12]
	b	.L6
.L7:
	ldr	r3, [r7, #12]
	vmov	s15, r3	@ int
	vcvt.f64.s32	d6, s15
	vmov.f64	d5, #1.0e+0
	vdiv.f64	d7, d5, d6
	vldr.64	d6, [r7, #16]
	vadd.f64	d7, d6, d7
	vstr.64	d7, [r7, #16]
	ldr	r3, [r7, #12]
	adds	r3, r3, #1
	str	r3, [r7, #12]
.L6:
	ldr	r2, [r7, #12]
	ldr	r3, [r7, #4]
	cmp	r2, r3
	ble	.L7
	nop
	vmov.f32	s0, s15
	adds	r7, r7, #24
	mov	sp, r7
	@ sp needed
	pop	{r4, r7}
	bx	lr
	.size	tongPhanSo, .-tongPhanSo
	.align	1
	.global	tongGiaiThua
	.syntax unified
	.thumb
	.thumb_func
	.fpu vfpv3-d16
	.type	tongGiaiThua, %function
tongGiaiThua:
	@ args = 0, pretend = 0, frame = 32
	@ frame_needed = 1, uses_anonymous_args = 0
	@ link register save eliminated.
	push	{r4, r5, r6, r7}
	sub	sp, sp, #32
	add	r7, sp, #0
	str	r0, [r7, #4]
	mov	r3, #0
	mov	r4, #0
	strd	r3, [r7, #16]
	mov	r3, #1
	mov	r4, #0
	strd	r3, [r7, #24]
	movs	r3, #1
	str	r3, [r7, #12]
	b	.L9
.L10:
	ldr	r3, [r7, #12]
	asr	r4, r3, #31
	ldr	r2, [r7, #28]
	mul	r1, r3, r2
	ldr	r2, [r7, #24]
	mul	r2, r4, r2
	add	r2, r2, r1
	ldr	r1, [r7, #24]
	umull	r3, r4, r1, r3
	add	r2, r2, r4
	mov	r4, r2
	strd	r3, [r7, #24]
	strd	r3, [r7, #24]
	ldrd	r1, [r7, #16]
	ldrd	r3, [r7, #24]
	adds	r5, r1, r3
	adc	r6, r2, r4
	strd	r5, [r7, #16]
	ldr	r3, [r7, #12]
	adds	r3, r3, #1
	str	r3, [r7, #12]
.L9:
	ldr	r2, [r7, #12]
	ldr	r3, [r7, #4]
	cmp	r2, r3
	ble	.L10
	ldr	r3, [r7, #16]
	mov	r0, r3
	adds	r7, r7, #32
	mov	sp, r7
	@ sp needed
	pop	{r4, r5, r6, r7}
	bx	lr
	.size	tongGiaiThua, .-tongGiaiThua
	.section	.rodata
	.align	2
.LC0:
	.ascii	"Tong tu 1 den %d l\303\240 %d.\012\000"
	.align	2
.LC1:
	.ascii	"Tong giai thua tu 1! den %d! la %ld. \012\000"
	.align	2
.LC2:
	.ascii	"Ket qua cac bieu thuc y v\303\240 z: \011 %d \011 %"
	.ascii	"d \012\000"
	.align	2
.LC3:
	.ascii	"\012time: %f\000"
	.text
	.align	1
	.global	main
	.syntax unified
	.thumb
	.thumb_func
	.fpu vfpv3-d16
	.type	main, %function
main:
	@ args = 0, pretend = 0, frame = 40
	@ frame_needed = 1, uses_anonymous_args = 0
	push	{r7, lr}
	sub	sp, sp, #40
	add	r7, sp, #0
	bl	clock(PLT)
	str	r0, [r7, #8]
	movw	r3, #27004
	movt	r3, 22
	str	r3, [r7, #12]
	movw	r3, #44515
	movt	r3, 74
	str	r3, [r7, #16]
	ldr	r3, .L16+16
.LPIC0:
	add	r3, pc
	ldr	r3, [r3]
	mov	r0, r3
	bl	tong(PLT)
	str	r0, [r7, #20]
	ldr	r3, .L16+20
.LPIC1:
	add	r3, pc
	ldr	r3, [r3]
	mov	r0, r3
	bl	tongGiaiThua(PLT)
	str	r0, [r7, #24]
	ldr	r2, [r7, #12]
	ldr	r3, [r7, #16]
	cmp	r2, r3
	ble	.L13
	ldr	r3, [r7, #24]
	ldr	r2, [r7, #20]
	mul	r2, r2, r3
	mov	r3, r2
	lsls	r3, r3, #1
	add	r3, r3, r2
	str	r3, [r7, #4]
	ldr	r3, [r7, #24]
	ldr	r2, [r7, #20]
	mul	r2, r2, r3
	mov	r3, r2
	lsls	r3, r3, #1
	add	r3, r3, r2
	add	r3, r3, #456
	str	r3, [r7]
	b	.L14
.L13:
	ldr	r3, [r7, #24]
	ldr	r2, [r7, #20]
	mul	r2, r2, r3
	mov	r3, r2
	lsls	r3, r3, #1
	add	r3, r3, r2
	vmov	s15, r3	@ int
	vcvt.f64.s32	d7, s15
	vldr.64	d6, .L16
	vadd.f64	d7, d7, d6
	vcvt.s32.f64	s15, d7
	vmov	r3, s15	@ int
	str	r3, [r7]
	ldr	r3, [r7, #24]
	ldr	r2, [r7, #20]
	mul	r2, r2, r3
	mov	r3, r2
	lsls	r3, r3, #1
	add	r3, r3, r2
	adds	r3, r3, #1
	str	r3, [r7, #4]
.L14:
	ldr	r3, .L16+24
.LPIC2:
	add	r3, pc
	ldr	r3, [r3]
	ldr	r2, [r7, #20]
	mov	r1, r3
	ldr	r3, .L16+28
.LPIC3:
	add	r3, pc
	mov	r0, r3
	bl	printf(PLT)
	ldr	r3, .L16+32
.LPIC4:
	add	r3, pc
	ldr	r3, [r3]
	ldr	r2, [r7, #24]
	mov	r1, r3
	ldr	r3, .L16+36
.LPIC5:
	add	r3, pc
	mov	r0, r3
	bl	printf(PLT)
	ldr	r2, [r7]
	ldr	r1, [r7, #4]
	ldr	r3, .L16+40
.LPIC6:
	add	r3, pc
	mov	r0, r3
	bl	printf(PLT)
	bl	clock(PLT)
	str	r0, [r7, #28]
	ldr	r2, [r7, #28]
	ldr	r3, [r7, #8]
	subs	r3, r2, r3
	vmov	s15, r3	@ int
	vcvt.f64.s32	d6, s15
	vldr.64	d5, .L16+8
	vdiv.f64	d7, d6, d5
	vstr.64	d7, [r7, #32]
	ldrd	r2, [r7, #32]
	ldr	r1, .L16+44
.LPIC7:
	add	r1, pc
	mov	r0, r1
	bl	printf(PLT)
	movs	r3, #0
	mov	r0, r3
	adds	r7, r7, #40
	mov	sp, r7
	@ sp needed
	pop	{r7, pc}
.L17:
	.align	3
.L16:
	.word	0
	.word	1083129856
	.word	0
	.word	1093567616
	.word	n-(.LPIC0+4)
	.word	n-(.LPIC1+4)
	.word	n-(.LPIC2+4)
	.word	.LC0-(.LPIC3+4)
	.word	n-(.LPIC4+4)
	.word	.LC1-(.LPIC5+4)
	.word	.LC2-(.LPIC6+4)
	.word	.LC3-(.LPIC7+4)
	.size	main, .-main
	.ident	"GCC: (Ubuntu/Linaro 7.5.0-3ubuntu1~18.04) 7.5.0"
	.section	.note.GNU-stack,"",%progbits
